target datalayout = "e-m:e-p270:32:32-p271:32:32-p272:64:64-i64:64-i128:128-f80:128-n8:16:32:64-S128"
target triple = "x86_64-pc-linux-gnu"

%struct.curl_blob = type { ptr, i64, i32 }

@.str.35 = private unnamed_addr constant [5 x i8] c":%s-\00", align 1
@.str.36 = private unnamed_addr constant [5 x i8] c"%02x\00", align 1

; Function Attrs: nounwind uwtable
define internal i32 @cf_ssl_peer_key_add_hash(ptr noundef %0, ptr noundef %1, ptr noundef %2) #0 {
  %4 = alloca i32, align 4
  %5 = alloca ptr, align 8
  %6 = alloca ptr, align 8
  %7 = alloca ptr, align 8
  %8 = alloca i32, align 4
  %9 = alloca [32 x i8], align 16
  %10 = alloca i64, align 8
  %11 = alloca i32, align 4
  store ptr %0, ptr %5, align 8, !tbaa !166
  store ptr %1, ptr %6, align 8, !tbaa !3
  store ptr %2, ptr %7, align 8, !tbaa !168
  call void @llvm.lifetime.start.p0(i64 4, ptr %8) #6
  store i32 0, ptr %8, align 4, !tbaa !10
  %12 = load ptr, ptr %7, align 8, !tbaa !168
  %13 = icmp ne ptr %12, null
  br i1 %13, label %14, label %60

14:                                               ; preds = %3
  %15 = load ptr, ptr %7, align 8, !tbaa !168
  %16 = getelementptr inbounds nuw %struct.curl_blob, ptr %15, i32 0, i32 1
  %17 = load i64, ptr %16, align 8, !tbaa !169
  %18 = icmp ne i64 %17, 0
  br i1 %18, label %19, label %60

19:                                               ; preds = %14
  call void @llvm.lifetime.start.p0(i64 32, ptr %9) #6
  call void @llvm.lifetime.start.p0(i64 8, ptr %10) #6
  %20 = load ptr, ptr %5, align 8, !tbaa !166
  %21 = load ptr, ptr %6, align 8, !tbaa !3
  %22 = call i32 (ptr, ptr, ...) @Curl_dyn_addf(ptr noundef %20, ptr noundef @.str.35, ptr noundef %21)
  store i32 %22, ptr %8, align 4, !tbaa !10
  %23 = load i32, ptr %8, align 4, !tbaa !10
  %24 = icmp ne i32 %23, 0
  br i1 %24, label %25, label %26

25:                                               ; preds = %19
  store i32 2, ptr %11, align 4
  br label %57

26:                                               ; preds = %19
  %27 = getelementptr inbounds [32 x i8], ptr %9, i64 0, i64 0
  %28 = load ptr, ptr %7, align 8, !tbaa !168
  %29 = getelementptr inbounds nuw %struct.curl_blob, ptr %28, i32 0, i32 0
  %30 = load ptr, ptr %29, align 8, !tbaa !171
  %31 = load ptr, ptr %7, align 8, !tbaa !168
  %32 = getelementptr inbounds nuw %struct.curl_blob, ptr %31, i32 0, i32 1
  %33 = load i64, ptr %32, align 8, !tbaa !169
  %34 = call i32 @Curl_sha256it(ptr noundef %27, ptr noundef %30, i64 noundef %33)
  store i32 %34, ptr %8, align 4, !tbaa !10
  %35 = load i32, ptr %8, align 4, !tbaa !10
  %36 = icmp ne i32 %35, 0
  br i1 %36, label %37, label %38

37:                                               ; preds = %26
  store i32 2, ptr %11, align 4
  br label %57

38:                                               ; preds = %26
  store i64 0, ptr %10, align 8, !tbaa !8
  br label %39

39:                                               ; preds = %53, %38
  %40 = load i64, ptr %10, align 8, !tbaa !8
  %41 = icmp ult i64 %40, 32
  br i1 %41, label %42, label %56

42:                                               ; preds = %39
  %43 = load ptr, ptr %5, align 8, !tbaa !166
  %44 = load i64, ptr %10, align 8, !tbaa !8
  %45 = getelementptr inbounds nuw [32 x i8], ptr %9, i64 0, i64 %44
  %46 = load i8, ptr %45, align 1, !tbaa !162
  %47 = zext i8 %46 to i32
  %48 = call i32 (ptr, ptr, ...) @Curl_dyn_addf(ptr noundef %43, ptr noundef @.str.36, i32 noundef %47)
  store i32 %48, ptr %8, align 4, !tbaa !10
  %49 = load i32, ptr %8, align 4, !tbaa !10
  %50 = icmp ne i32 %49, 0
  br i1 %50, label %51, label %52

51:                                               ; preds = %42
  store i32 2, ptr %11, align 4
  br label %57

52:                                               ; preds = %42
  br label %53

53:                                               ; preds = %52
  %54 = load i64, ptr %10, align 8, !tbaa !8
  %55 = add i64 %54, 1
  store i64 %55, ptr %10, align 8, !tbaa !8
  br label %39, !llvm.loop !172

56:                                               ; preds = %39
  store i32 0, ptr %11, align 4
  br label %57

57:                                               ; preds = %51, %37, %25, %56
  call void @llvm.lifetime.end.p0(i64 8, ptr %10) #6
  call void @llvm.lifetime.end.p0(i64 32, ptr %9) #6
  %58 = load i32, ptr %11, align 4
  switch i32 %58, label %63 [
    i32 0, label %59
    i32 2, label %61
  ]

59:                                               ; preds = %57
  br label %60

60:                                               ; preds = %59, %14, %3
  br label %61

61:                                               ; preds = %60, %57
  %62 = load i32, ptr %8, align 4, !tbaa !10
  store i32 %62, ptr %4, align 4
  store i32 1, ptr %11, align 4
  br label %63

63:                                               ; preds = %61, %57
  call void @llvm.lifetime.end.p0(i64 4, ptr %8) #6
  %64 = load i32, ptr %4, align 4
  ret i32 %64
}