; Function Attrs: nounwind uwtable
define internal fastcc i32 @cf_ssl_peer_key_add_hash(ptr noundef nonnull %0, ptr noundef %1, ptr noundef nonnull readonly captures(none) %2) unnamed_addr #0 {
  %4 = alloca [32 x i8], align 16
  %5 = getelementptr inbounds nuw i8, ptr %2, i64 8
  %6 = load i64, ptr %5, align 8, !tbaa !151
  %.not = icmp eq i64 %6, 0
  br i1 %.not, label %19, label %7

7:                                                ; preds = %3
  call void @llvm.lifetime.start.p0(i64 32, ptr nonnull %4) #9
  %8 = tail call i32 (ptr, ptr, ...) @Curl_dyn_addf(ptr noundef nonnull %0, ptr noundef nonnull @.str.35, ptr noundef %1) #9
  %.not24 = icmp eq i32 %8, 0
  br i1 %.not24, label %9, label %.loopexit

9:                                                ; preds = %7
  %10 = load ptr, ptr %2, align 8, !tbaa !153
  %11 = load i64, ptr %5, align 8, !tbaa !151
  %12 = call i32 @Curl_sha256it(ptr noundef nonnull %4, ptr noundef %10, i64 noundef %11) #9
  %.not25 = icmp eq i32 %12, 0
  br i1 %.not25, label %.preheader, label %.loopexit

13:                                               ; preds = %.preheader
  %14 = add nuw nsw i64 %.01527, 1
  %exitcond.not = icmp eq i64 %14, 32
  br i1 %exitcond.not, label %.loopexit, label %.preheader, !llvm.loop !154

.preheader:                                       ; preds = %9, %13
  %.01527 = phi i64 [ %14, %13 ], [ 0, %9 ]
  %15 = getelementptr inbounds nuw [32 x i8], ptr %4, i64 0, i64 %.01527
  %16 = load i8, ptr %15, align 1, !tbaa !147
  %17 = zext i8 %16 to i32
  %18 = call i32 (ptr, ptr, ...) @Curl_dyn_addf(ptr noundef nonnull %0, ptr noundef nonnull @.str.36, i32 noundef %17) #9
  %.not26 = icmp eq i32 %18, 0
  br i1 %.not26, label %13, label %.loopexit

.loopexit:                                        ; preds = %13, %.preheader, %9, %7
  %.016 = phi i32 [ %8, %7 ], [ %12, %9 ], [ 0, %13 ], [ %18, %.preheader ]
  call void @llvm.lifetime.end.p0(i64 32, ptr nonnull %4) #9
  br label %19

19:                                               ; preds = %3, %.loopexit
  %.2 = phi i32 [ %.016, %.loopexit ], [ 0, %3 ]
  ret i32 %.2
}